target datalayout = "e-m:e-p270:32:32-p271:32:32-p272:64:64-i64:64-i128:128-f80:128-n8:16:32:64-S128"
target triple = "x86_64-pc-linux-gnu"

%struct.stat = type { i64, i64, i64, i32, i32, i32, i32, i64, i64, i64, i64, %struct.timespec, %struct.timespec, %struct.timespec, [3 x i64] }
%struct.timespec = type { i64, i64 }

@size_garbage = internal global i64 0, align 8
@garbage = internal global i64 0, align 8
@.str.16 = private unnamed_addr constant [7 x i8] c"%s: %s\00", align 1
@.str.17 = private unnamed_addr constant [31 x i8] c"no corresponding .idx or .pack\00", align 1
@.str.18 = private unnamed_addr constant [14 x i8] c"garbage found\00", align 1
@.str.19 = private unnamed_addr constant [22 x i8] c"no corresponding .idx\00", align 1
@.str.20 = private unnamed_addr constant [23 x i8] c"no corresponding .pack\00", align 1

; Function Attrs: nounwind uwtable
define internal ptr @bits_to_msg(i32 noundef %0) #0 {
  %2 = alloca ptr, align 8
  %3 = alloca i32, align 4
  store i32 %0, ptr %3, align 4, !tbaa !4
  %4 = load i32, ptr %3, align 4, !tbaa !4
  switch i32 %4, label %10 [
    i32 0, label %5
    i32 4, label %6
    i32 1, label %7
    i32 2, label %8
    i32 3, label %9
  ]

5:                                                ; preds = %1
  store ptr @.str.17, ptr %2, align 8
  br label %11

6:                                                ; preds = %1
  store ptr @.str.18, ptr %2, align 8
  br label %11

7:                                                ; preds = %1
  store ptr @.str.19, ptr %2, align 8
  br label %11

8:                                                ; preds = %1
  store ptr @.str.20, ptr %2, align 8
  br label %11

9:                                                ; preds = %1
  br label %10

10:                                               ; preds = %1, %9
  store ptr null, ptr %2, align 8
  br label %11

11:                                               ; preds = %10, %8, %7, %6, %5
  %12 = load ptr, ptr %2, align 8
  ret ptr %12
}

; Function Attrs: nounwind uwtable
define internal void @real_report_garbage(i32 noundef %0, ptr noundef %1) #0 {
  %3 = alloca i32, align 4
  %4 = alloca ptr, align 8
  %5 = alloca %struct.stat, align 8
  %6 = alloca ptr, align 8
  %7 = alloca i32, align 4
  store i32 %0, ptr %3, align 4, !tbaa !4
  store ptr %1, ptr %4, align 8, !tbaa !11
  call void @llvm.lifetime.start.p0(i64 144, ptr %5) #8
  call void @llvm.lifetime.start.p0(i64 8, ptr %6) #8
  %8 = load i32, ptr %3, align 4, !tbaa !4
  %9 = call ptr @bits_to_msg(i32 noundef %8)
  store ptr %9, ptr %6, align 8, !tbaa !11
  %10 = load ptr, ptr %6, align 8, !tbaa !11
  %11 = icmp ne ptr %10, null
  br i1 %11, label %13, label %12

12:                                               ; preds = %2
  store i32 1, ptr %7, align 4
  br label %27

13:                                               ; preds = %2
  %14 = load ptr, ptr %4, align 8, !tbaa !11
  %15 = call i32 @stat64(ptr noundef %14, ptr noundef %5) #8
  %16 = icmp ne i32 %15, 0
  br i1 %16, label %22, label %17

17:                                               ; preds = %13
  %18 = getelementptr inbounds nuw %struct.stat, ptr %5, i32 0, i32 8
  %19 = load i64, ptr %18, align 8, !tbaa !37
  %20 = load i64, ptr @size_garbage, align 8, !tbaa !30
  %21 = add nsw i64 %20, %19
  store i64 %21, ptr @size_garbage, align 8, !tbaa !30
  br label %22

22:                                               ; preds = %17, %13
  %23 = load ptr, ptr %6, align 8, !tbaa !11
  %24 = load ptr, ptr %4, align 8, !tbaa !11
  call void (ptr, ...) @warning(ptr noundef @.str.16, ptr noundef %23, ptr noundef %24)
  %25 = load i64, ptr @garbage, align 8, !tbaa !30
  %26 = add i64 %25, 1
  store i64 %26, ptr @garbage, align 8, !tbaa !30
  store i32 0, ptr %7, align 4
  br label %27

27:                                               ; preds = %22, %12
  call void @llvm.lifetime.end.p0(i64 8, ptr %6) #8
  call void @llvm.lifetime.end.p0(i64 144, ptr %5) #8
  %28 = load i32, ptr %7, align 4
  switch i32 %28, label %30 [
    i32 0, label %29
    i32 1, label %29
  ]

29:                                               ; preds = %27, %27
  ret void

30:                                               ; preds = %27
  unreachable
}