; Function Attrs: nounwind uwtable
define internal void @real_report_garbage(i32 noundef %0, ptr noundef %1) #0 {
  %3 = alloca %struct.stat, align 8
  call void @llvm.lifetime.start.p0(i64 144, ptr nonnull %3) #7
  %4 = icmp ult i32 %0, 5
  br i1 %4, label %switch.hole_check, label %bits_to_msg.exit

switch.hole_check:                                ; preds = %2
  %switch.maskindex = trunc nuw i32 %0 to i8
  %switch.shifted = lshr i8 23, %switch.maskindex
  %switch.lobit = trunc i8 %switch.shifted to i1
  br i1 %switch.lobit, label %switch.lookup, label %bits_to_msg.exit

switch.lookup:                                    ; preds = %switch.hole_check
  %5 = zext nneg i32 %0 to i64
  %switch.gep = getelementptr inbounds nuw [5 x ptr], ptr @switch.table.real_report_garbage, i64 0, i64 %5
  %switch.load = load ptr, ptr %switch.gep, align 8
  %6 = call i32 @stat64(ptr noundef %1, ptr noundef nonnull %3) #7
  %.not4 = icmp eq i32 %6, 0
  br i1 %.not4, label %7, label %12

7:                                                ; preds = %switch.lookup
  %8 = getelementptr inbounds nuw i8, ptr %3, i64 48
  %9 = load i64, ptr %8, align 8, !tbaa !31
  %10 = load i64, ptr @size_garbage, align 8, !tbaa !24
  %11 = add nsw i64 %10, %9
  store i64 %11, ptr @size_garbage, align 8, !tbaa !24
  br label %12

12:                                               ; preds = %7, %switch.lookup
  tail call void (ptr, ...) @warning(ptr noundef nonnull @.str.16, ptr noundef nonnull %switch.load, ptr noundef %1) #7
  %13 = load i64, ptr @garbage, align 8, !tbaa !24
  %14 = add i64 %13, 1
  store i64 %14, ptr @garbage, align 8, !tbaa !24
  br label %bits_to_msg.exit

bits_to_msg.exit:                                 ; preds = %switch.hole_check, %2, %12
  call void @llvm.lifetime.end.p0(i64 144, ptr nonnull %3) #7
  ret void
}